; ModuleID = '29/1905.c'
source_filename = "29/1905.c"
target datalayout = "e-m:e-p270:32:32-p271:32:32-p272:64:64-i64:64-f80:128-n8:16:32:64-S128"
target triple = "x86_64-pc-linux-gnu"

@.str = private unnamed_addr constant [3 x i8] c"%d\00", align 1
@.str.1 = private unnamed_addr constant [7 x i8] c"%.3lf\0A\00", align 1

; Function Attrs: noinline nounwind uwtable
define dso_local i32 @main() #0 {
  %1 = alloca i32, align 4
  %2 = alloca i32, align 4
  %3 = alloca i32, align 4
  %4 = alloca i32, align 4
  %5 = alloca double, align 8
  %6 = alloca [100 x double], align 16
  store i32 0, i32* %1, align 4
  %7 = call i32 (i8*, ...) @__isoc99_scanf(i8* getelementptr inbounds ([3 x i8], [3 x i8]* @.str, i64 0, i64 0), i32* %4)
  br label %8

8:                                                ; preds = %60, %0
  %9 = load i32, i32* %4, align 4
  %10 = add nsw i32 %9, -1
  store i32 %10, i32* %4, align 4
  %11 = icmp ne i32 %9, 0
  br i1 %11, label %12, label %63

12:                                               ; preds = %8
  %13 = call i32 (i8*, ...) @__isoc99_scanf(i8* getelementptr inbounds ([3 x i8], [3 x i8]* @.str, i64 0, i64 0), i32* %3)
  %14 = getelementptr inbounds [100 x double], [100 x double]* %6, i64 0, i64 1
  store double 1.000000e+00, double* %14, align 8
  %15 = getelementptr inbounds [100 x double], [100 x double]* %6, i64 0, i64 2
  store double 2.000000e+00, double* %15, align 16
  store i32 3, i32* %2, align 4
  br label %16

16:                                               ; preds = %36, %12
  %17 = load i32, i32* %2, align 4
  %18 = load i32, i32* %3, align 4
  %19 = add nsw i32 %18, 1
  %20 = icmp sle i32 %17, %19
  br i1 %20, label %21, label %39

21:                                               ; preds = %16
  %22 = load i32, i32* %2, align 4
  %23 = sub nsw i32 %22, 2
  %24 = sext i32 %23 to i64
  %25 = getelementptr inbounds [100 x double], [100 x double]* %6, i64 0, i64 %24
  %26 = load double, double* %25, align 8
  %27 = load i32, i32* %2, align 4
  %28 = sub nsw i32 %27, 1
  %29 = sext i32 %28 to i64
  %30 = getelementptr inbounds [100 x double], [100 x double]* %6, i64 0, i64 %29
  %31 = load double, double* %30, align 8
  %32 = fadd double %26, %31
  %33 = load i32, i32* %2, align 4
  %34 = sext i32 %33 to i64
  %35 = getelementptr inbounds [100 x double], [100 x double]* %6, i64 0, i64 %34
  store double %32, double* %35, align 8
  br label %36

36:                                               ; preds = %21
  %37 = load i32, i32* %2, align 4
  %38 = add nsw i32 %37, 1
  store i32 %38, i32* %2, align 4
  br label %16

39:                                               ; preds = %16
  store double 0.000000e+00, double* %5, align 8
  store i32 1, i32* %2, align 4
  br label %40

40:                                               ; preds = %57, %39
  %41 = load i32, i32* %2, align 4
  %42 = load i32, i32* %3, align 4
  %43 = icmp sle i32 %41, %42
  br i1 %43, label %44, label %60

44:                                               ; preds = %40
  %45 = load i32, i32* %2, align 4
  %46 = add nsw i32 %45, 1
  %47 = sext i32 %46 to i64
  %48 = getelementptr inbounds [100 x double], [100 x double]* %6, i64 0, i64 %47
  %49 = load double, double* %48, align 8
  %50 = load i32, i32* %2, align 4
  %51 = sext i32 %50 to i64
  %52 = getelementptr inbounds [100 x double], [100 x double]* %6, i64 0, i64 %51
  %53 = load double, double* %52, align 8
  %54 = fdiv double %49, %53
  %55 = load double, double* %5, align 8
  %56 = fadd double %55, %54
  store double %56, double* %5, align 8
  br label %57

57:                                               ; preds = %44
  %58 = load i32, i32* %2, align 4
  %59 = add nsw i32 %58, 1
  store i32 %59, i32* %2, align 4
  br label %40

60:                                               ; preds = %40
  %61 = load double, double* %5, align 8
  %62 = call i32 (i8*, ...) @printf(i8* getelementptr inbounds ([7 x i8], [7 x i8]* @.str.1, i64 0, i64 0), double %61)
  br label %8

63:                                               ; preds = %8
  ret i32 0
}

declare dso_local i32 @__isoc99_scanf(i8*, ...) #1

declare dso_local i32 @printf(i8*, ...) #1


!llvm.module.flags = !{!0}
!llvm.ident = !{!1}

!0 = !{i32 1, !"wchar_size", i32 4}
!1 = !{!"clang version 10.0.0-4ubuntu1 "}
